target datalayout = "e-m:e-p270:32:32-p271:32:32-p272:64:64-i64:64-i128:128-f80:128-n8:16:32:64-S128"
target triple = "x86_64-pc-linux-gnu"

%struct.stbtt__buf = type { ptr, i32, i32 }
%struct.stbtt_fontinfo = type { ptr, ptr, i32, i32, i32, i32, i32, i32, i32, i32, i32, i32, i32, i32, %struct.stbtt__buf, %struct.stbtt__buf, %struct.stbtt__buf, %struct.stbtt__buf, %struct.stbtt__buf, %struct.stbtt__buf }

; Function Attrs: nounwind uwtable
define zeroext i16 @ttUSHORT(ptr noundef %0) #0 {
  %2 = alloca ptr, align 8
  store ptr %0, ptr %2, align 8, !tbaa !25
  %3 = load ptr, ptr %2, align 8, !tbaa !25
  %4 = getelementptr inbounds i8, ptr %3, i64 0
  %5 = load i8, ptr %4, align 1, !tbaa !13
  %6 = zext i8 %5 to i32
  %7 = mul nsw i32 %6, 256
  %8 = load ptr, ptr %2, align 8, !tbaa !25
  %9 = getelementptr inbounds i8, ptr %8, i64 1
  %10 = load i8, ptr %9, align 1, !tbaa !13
  %11 = zext i8 %10 to i32
  %12 = add nsw i32 %7, %11
  %13 = trunc i32 %12 to i16
  ret i16 %13
}

; Function Attrs: nounwind uwtable
define signext i16 @ttSHORT(ptr noundef %0) #0 {
  %2 = alloca ptr, align 8
  store ptr %0, ptr %2, align 8, !tbaa !25
  %3 = load ptr, ptr %2, align 8, !tbaa !25
  %4 = getelementptr inbounds i8, ptr %3, i64 0
  %5 = load i8, ptr %4, align 1, !tbaa !13
  %6 = zext i8 %5 to i32
  %7 = mul nsw i32 %6, 256
  %8 = load ptr, ptr %2, align 8, !tbaa !25
  %9 = getelementptr inbounds i8, ptr %8, i64 1
  %10 = load i8, ptr %9, align 1, !tbaa !13
  %11 = zext i8 %10 to i32
  %12 = add nsw i32 %7, %11
  %13 = trunc i32 %12 to i16
  ret i16 %13
}

; Function Attrs: nounwind uwtable
define void @stbtt_GetFontVMetrics(ptr noundef %0, ptr noundef %1, ptr noundef %2, ptr noundef %3) #0 {
  %5 = alloca ptr, align 8
  %6 = alloca ptr, align 8
  %7 = alloca ptr, align 8
  %8 = alloca ptr, align 8
  store ptr %0, ptr %5, align 8, !tbaa !28
  store ptr %1, ptr %6, align 8, !tbaa !22
  store ptr %2, ptr %7, align 8, !tbaa !22
  store ptr %3, ptr %8, align 8, !tbaa !22
  %9 = load ptr, ptr %6, align 8, !tbaa !22
  %10 = icmp ne ptr %9, null
  br i1 %10, label %11, label %24

11:                                               ; preds = %4
  %12 = load ptr, ptr %5, align 8, !tbaa !28
  %13 = getelementptr inbounds nuw %struct.stbtt_fontinfo, ptr %12, i32 0, i32 1
  %14 = load ptr, ptr %13, align 8, !tbaa !32
  %15 = load ptr, ptr %5, align 8, !tbaa !28
  %16 = getelementptr inbounds nuw %struct.stbtt_fontinfo, ptr %15, i32 0, i32 7
  %17 = load i32, ptr %16, align 4, !tbaa !37
  %18 = sext i32 %17 to i64
  %19 = getelementptr inbounds i8, ptr %14, i64 %18
  %20 = getelementptr inbounds i8, ptr %19, i64 4
  %21 = call signext i16 @ttSHORT(ptr noundef %20)
  %22 = sext i16 %21 to i32
  %23 = load ptr, ptr %6, align 8, !tbaa !22
  store i32 %22, ptr %23, align 4, !tbaa !14
  br label %24

24:                                               ; preds = %11, %4
  %25 = load ptr, ptr %7, align 8, !tbaa !22
  %26 = icmp ne ptr %25, null
  br i1 %26, label %27, label %40

27:                                               ; preds = %24
  %28 = load ptr, ptr %5, align 8, !tbaa !28
  %29 = getelementptr inbounds nuw %struct.stbtt_fontinfo, ptr %28, i32 0, i32 1
  %30 = load ptr, ptr %29, align 8, !tbaa !32
  %31 = load ptr, ptr %5, align 8, !tbaa !28
  %32 = getelementptr inbounds nuw %struct.stbtt_fontinfo, ptr %31, i32 0, i32 7
  %33 = load i32, ptr %32, align 4, !tbaa !37
  %34 = sext i32 %33 to i64
  %35 = getelementptr inbounds i8, ptr %30, i64 %34
  %36 = getelementptr inbounds i8, ptr %35, i64 6
  %37 = call signext i16 @ttSHORT(ptr noundef %36)
  %38 = sext i16 %37 to i32
  %39 = load ptr, ptr %7, align 8, !tbaa !22
  store i32 %38, ptr %39, align 4, !tbaa !14
  br label %40

40:                                               ; preds = %27, %24
  %41 = load ptr, ptr %8, align 8, !tbaa !22
  %42 = icmp ne ptr %41, null
  br i1 %42, label %43, label %56

43:                                               ; preds = %40
  %44 = load ptr, ptr %5, align 8, !tbaa !28
  %45 = getelementptr inbounds nuw %struct.stbtt_fontinfo, ptr %44, i32 0, i32 1
  %46 = load ptr, ptr %45, align 8, !tbaa !32
  %47 = load ptr, ptr %5, align 8, !tbaa !28
  %48 = getelementptr inbounds nuw %struct.stbtt_fontinfo, ptr %47, i32 0, i32 7
  %49 = load i32, ptr %48, align 4, !tbaa !37
  %50 = sext i32 %49 to i64
  %51 = getelementptr inbounds i8, ptr %46, i64 %50
  %52 = getelementptr inbounds i8, ptr %51, i64 8
  %53 = call signext i16 @ttSHORT(ptr noundef %52)
  %54 = sext i16 %53 to i32
  %55 = load ptr, ptr %8, align 8, !tbaa !22
  store i32 %54, ptr %55, align 4, !tbaa !14
  br label %56

56:                                               ; preds = %43, %40
  ret void
}

; Function Attrs: nounwind uwtable
define float @stbtt_ScaleForMappingEmToPixels(ptr noundef %0, float noundef %1) #0 {
  %3 = alloca ptr, align 8
  %4 = alloca float, align 4
  %5 = alloca i32, align 4
  store ptr %0, ptr %3, align 8, !tbaa !28
  store float %1, ptr %4, align 4, !tbaa !67
  call void @llvm.lifetime.start.p0(i64 4, ptr %5) #8
  %6 = load ptr, ptr %3, align 8, !tbaa !28
  %7 = getelementptr inbounds nuw %struct.stbtt_fontinfo, ptr %6, i32 0, i32 1
  %8 = load ptr, ptr %7, align 8, !tbaa !32
  %9 = load ptr, ptr %3, align 8, !tbaa !28
  %10 = getelementptr inbounds nuw %struct.stbtt_fontinfo, ptr %9, i32 0, i32 5
  %11 = load i32, ptr %10, align 4, !tbaa !35
  %12 = sext i32 %11 to i64
  %13 = getelementptr inbounds i8, ptr %8, i64 %12
  %14 = getelementptr inbounds i8, ptr %13, i64 18
  %15 = call zeroext i16 @ttUSHORT(ptr noundef %14)
  %16 = zext i16 %15 to i32
  store i32 %16, ptr %5, align 4, !tbaa !14
  %17 = load float, ptr %4, align 4, !tbaa !67
  %18 = load i32, ptr %5, align 4, !tbaa !14
  %19 = sitofp i32 %18 to float
  %20 = fdiv float %17, %19
  call void @llvm.lifetime.end.p0(i64 4, ptr %5) #8
  ret float %20
}

; Function Attrs: nounwind uwtable
define float @stbtt_ScaleForPixelHeight(ptr noundef %0, float noundef %1) #0 {
  %3 = alloca ptr, align 8
  %4 = alloca float, align 4
  %5 = alloca i32, align 4
  store ptr %0, ptr %3, align 8, !tbaa !28
  store float %1, ptr %4, align 4, !tbaa !67
  call void @llvm.lifetime.start.p0(i64 4, ptr %5) #8
  %6 = load ptr, ptr %3, align 8, !tbaa !28
  %7 = getelementptr inbounds nuw %struct.stbtt_fontinfo, ptr %6, i32 0, i32 1
  %8 = load ptr, ptr %7, align 8, !tbaa !32
  %9 = load ptr, ptr %3, align 8, !tbaa !28
  %10 = getelementptr inbounds nuw %struct.stbtt_fontinfo, ptr %9, i32 0, i32 7
  %11 = load i32, ptr %10, align 4, !tbaa !37
  %12 = sext i32 %11 to i64
  %13 = getelementptr inbounds i8, ptr %8, i64 %12
  %14 = getelementptr inbounds i8, ptr %13, i64 4
  %15 = call signext i16 @ttSHORT(ptr noundef %14)
  %16 = sext i16 %15 to i32
  %17 = load ptr, ptr %3, align 8, !tbaa !28
  %18 = getelementptr inbounds nuw %struct.stbtt_fontinfo, ptr %17, i32 0, i32 1
  %19 = load ptr, ptr %18, align 8, !tbaa !32
  %20 = load ptr, ptr %3, align 8, !tbaa !28
  %21 = getelementptr inbounds nuw %struct.stbtt_fontinfo, ptr %20, i32 0, i32 7
  %22 = load i32, ptr %21, align 4, !tbaa !37
  %23 = sext i32 %22 to i64
  %24 = getelementptr inbounds i8, ptr %19, i64 %23
  %25 = getelementptr inbounds i8, ptr %24, i64 6
  %26 = call signext i16 @ttSHORT(ptr noundef %25)
  %27 = sext i16 %26 to i32
  %28 = sub nsw i32 %16, %27
  store i32 %28, ptr %5, align 4, !tbaa !14
  %29 = load float, ptr %4, align 4, !tbaa !67
  %30 = load i32, ptr %5, align 4, !tbaa !14
  %31 = sitofp i32 %30 to float
  %32 = fdiv float %29, %31
  call void @llvm.lifetime.end.p0(i64 4, ptr %5) #8
  ret float %32
}

; Function Attrs: nounwind uwtable
define i32 @stbtt_InitFont(ptr noundef %0, ptr noundef %1, i32 noundef %2) #0 {
  %4 = alloca ptr, align 8
  %5 = alloca ptr, align 8
  %6 = alloca i32, align 4
  store ptr %0, ptr %4, align 8, !tbaa !28
  store ptr %1, ptr %5, align 8, !tbaa !25
  store i32 %2, ptr %6, align 4, !tbaa !14
  %7 = load ptr, ptr %4, align 8, !tbaa !28
  %8 = load ptr, ptr %5, align 8, !tbaa !25
  %9 = load i32, ptr %6, align 4, !tbaa !14
  %10 = call i32 @stbtt_InitFont_internal(ptr noundef %7, ptr noundef %8, i32 noundef %9)
  ret i32 %10
}

; Function Attrs: nounwind uwtable
define i32 @stbtt_GetFontOffsetForIndex(ptr noundef %0, i32 noundef %1) #0 {
  %3 = alloca ptr, align 8
  %4 = alloca i32, align 4
  store ptr %0, ptr %3, align 8, !tbaa !25
  store i32 %1, ptr %4, align 4, !tbaa !14
  %5 = load ptr, ptr %3, align 8, !tbaa !25
  %6 = load i32, ptr %4, align 4, !tbaa !14
  %7 = call i32 @stbtt_GetFontOffsetForIndex_internal(ptr noundef %5, i32 noundef %6)
  ret i32 %7
}

; Function Attrs: nounwind uwtable
define void @stbtt_GetScaledFontVMetrics(ptr noundef %0, i32 noundef %1, float noundef %2, ptr noundef %3, ptr noundef %4, ptr noundef %5) #0 {
  %7 = alloca ptr, align 8
  %8 = alloca i32, align 4
  %9 = alloca float, align 4
  %10 = alloca ptr, align 8
  %11 = alloca ptr, align 8
  %12 = alloca ptr, align 8
  %13 = alloca i32, align 4
  %14 = alloca i32, align 4
  %15 = alloca i32, align 4
  %16 = alloca float, align 4
  %17 = alloca %struct.stbtt_fontinfo, align 8
  store ptr %0, ptr %7, align 8, !tbaa !25
  store i32 %1, ptr %8, align 4, !tbaa !14
  store float %2, ptr %9, align 4, !tbaa !67
  store ptr %3, ptr %10, align 8, !tbaa !133
  store ptr %4, ptr %11, align 8, !tbaa !133
  store ptr %5, ptr %12, align 8, !tbaa !133
  call void @llvm.lifetime.start.p0(i64 4, ptr %13) #8
  call void @llvm.lifetime.start.p0(i64 4, ptr %14) #8
  call void @llvm.lifetime.start.p0(i64 4, ptr %15) #8
  call void @llvm.lifetime.start.p0(i64 4, ptr %16) #8
  call void @llvm.lifetime.start.p0(i64 160, ptr %17) #8
  %18 = load ptr, ptr %7, align 8, !tbaa !25
  %19 = load ptr, ptr %7, align 8, !tbaa !25
  %20 = load i32, ptr %8, align 4, !tbaa !14
  %21 = call i32 @stbtt_GetFontOffsetForIndex(ptr noundef %19, i32 noundef %20)
  %22 = call i32 @stbtt_InitFont(ptr noundef %17, ptr noundef %18, i32 noundef %21)
  %23 = load float, ptr %9, align 4, !tbaa !67
  %24 = fcmp ogt float %23, 0.000000e+00
  br i1 %24, label %25, label %28

25:                                               ; preds = %6
  %26 = load float, ptr %9, align 4, !tbaa !67
  %27 = call float @stbtt_ScaleForPixelHeight(ptr noundef %17, float noundef %26)
  br label %32

28:                                               ; preds = %6
  %29 = load float, ptr %9, align 4, !tbaa !67
  %30 = fneg float %29
  %31 = call float @stbtt_ScaleForMappingEmToPixels(ptr noundef %17, float noundef %30)
  br label %32

32:                                               ; preds = %28, %25
  %33 = phi float [ %27, %25 ], [ %31, %28 ]
  store float %33, ptr %16, align 4, !tbaa !67
  call void @stbtt_GetFontVMetrics(ptr noundef %17, ptr noundef %13, ptr noundef %14, ptr noundef %15)
  %34 = load i32, ptr %13, align 4, !tbaa !14
  %35 = sitofp i32 %34 to float
  %36 = load float, ptr %16, align 4, !tbaa !67
  %37 = fmul float %35, %36
  %38 = load ptr, ptr %10, align 8, !tbaa !133
  store float %37, ptr %38, align 4, !tbaa !67
  %39 = load i32, ptr %14, align 4, !tbaa !14
  %40 = sitofp i32 %39 to float
  %41 = load float, ptr %16, align 4, !tbaa !67
  %42 = fmul float %40, %41
  %43 = load ptr, ptr %11, align 8, !tbaa !133
  store float %42, ptr %43, align 4, !tbaa !67
  %44 = load i32, ptr %15, align 4, !tbaa !14
  %45 = sitofp i32 %44 to float
  %46 = load float, ptr %16, align 4, !tbaa !67
  %47 = fmul float %45, %46
  %48 = load ptr, ptr %12, align 8, !tbaa !133
  store float %47, ptr %48, align 4, !tbaa !67
  call void @llvm.lifetime.end.p0(i64 160, ptr %17) #8
  call void @llvm.lifetime.end.p0(i64 4, ptr %16) #8
  call void @llvm.lifetime.end.p0(i64 4, ptr %15) #8
  call void @llvm.lifetime.end.p0(i64 4, ptr %14) #8
  call void @llvm.lifetime.end.p0(i64 4, ptr %13) #8
  ret void
}