; Function Attrs: nofree norecurse nosync nounwind memory(read, argmem: readwrite, inaccessiblemem: none) uwtable
define void @stbtt_GetScaledFontVMetrics(ptr noundef %0, i32 noundef %1, float noundef %2, ptr noundef writeonly captures(none) initializes((0, 4)) %3, ptr noundef writeonly captures(none) initializes((0, 4)) %4, ptr noundef writeonly captures(none) initializes((0, 4)) %5) local_unnamed_addr #3 {
  %7 = alloca %struct.stbtt_fontinfo, align 8
  call void @llvm.lifetime.start.p0(i64 160, ptr nonnull %7) #32
  %8 = tail call i32 @stbtt_GetFontOffsetForIndex_internal(ptr noundef readonly %0, i32 noundef %1)
  %9 = call range(i32 0, 2) i32 @stbtt_InitFont_internal(ptr noundef nonnull %7, ptr noundef %0, i32 noundef %8)
  %10 = fcmp ogt float %2, 0.000000e+00
  br i1 %10, label %11, label %39

11:                                               ; preds = %6
  %12 = getelementptr inbounds nuw i8, ptr %7, i64 8
  %13 = load ptr, ptr %12, align 8, !tbaa !23
  %14 = getelementptr inbounds nuw i8, ptr %7, i64 36
  %15 = load i32, ptr %14, align 4, !tbaa !28
  %16 = sext i32 %15 to i64
  %17 = getelementptr inbounds i8, ptr %13, i64 %16
  %18 = getelementptr inbounds nuw i8, ptr %17, i64 4
  %19 = load i8, ptr %18, align 1, !tbaa !12
  %20 = zext i8 %19 to i16
  %21 = shl nuw i16 %20, 8
  %22 = getelementptr inbounds nuw i8, ptr %17, i64 5
  %23 = load i8, ptr %22, align 1, !tbaa !12
  %24 = zext i8 %23 to i16
  %25 = or disjoint i16 %21, %24
  %26 = sext i16 %25 to i32
  %27 = getelementptr inbounds nuw i8, ptr %17, i64 6
  %28 = load i8, ptr %27, align 1, !tbaa !12
  %29 = zext i8 %28 to i16
  %30 = shl nuw i16 %29, 8
  %31 = getelementptr inbounds nuw i8, ptr %17, i64 7
  %32 = load i8, ptr %31, align 1, !tbaa !12
  %33 = zext i8 %32 to i16
  %34 = or disjoint i16 %30, %33
  %35 = sext i16 %34 to i32
  %36 = sub nsw i32 %26, %35
  %37 = sitofp i32 %36 to float
  %38 = fdiv float %2, %37
  br label %57

39:                                               ; preds = %6
  %40 = fneg float %2
  %41 = getelementptr inbounds nuw i8, ptr %7, i64 8
  %42 = load ptr, ptr %41, align 8, !tbaa !23
  %43 = getelementptr inbounds nuw i8, ptr %7, i64 28
  %44 = load i32, ptr %43, align 4, !tbaa !26
  %45 = sext i32 %44 to i64
  %46 = getelementptr inbounds i8, ptr %42, i64 %45
  %47 = getelementptr inbounds nuw i8, ptr %46, i64 18
  %48 = load i8, ptr %47, align 1, !tbaa !12
  %49 = zext i8 %48 to i16
  %50 = shl nuw i16 %49, 8
  %51 = getelementptr inbounds nuw i8, ptr %46, i64 19
  %52 = load i8, ptr %51, align 1, !tbaa !12
  %53 = zext i8 %52 to i16
  %54 = or disjoint i16 %50, %53
  %55 = uitofp i16 %54 to float
  %56 = fdiv float %40, %55
  %.phi.trans.insert = getelementptr inbounds nuw i8, ptr %7, i64 36
  %.pre = load i32, ptr %.phi.trans.insert, align 4, !tbaa !28
  %.phi.trans.insert13 = sext i32 %.pre to i64
  %.phi.trans.insert14 = getelementptr inbounds i8, ptr %42, i64 %.phi.trans.insert13
  %.phi.trans.insert15 = getelementptr inbounds nuw i8, ptr %.phi.trans.insert14, i64 4
  %.pre16 = load i8, ptr %.phi.trans.insert15, align 1, !tbaa !12
  %.phi.trans.insert17 = getelementptr inbounds nuw i8, ptr %.phi.trans.insert14, i64 5
  %.pre18 = load i8, ptr %.phi.trans.insert17, align 1, !tbaa !12
  %.phi.trans.insert19 = getelementptr inbounds nuw i8, ptr %.phi.trans.insert14, i64 6
  %.pre20 = load i8, ptr %.phi.trans.insert19, align 1, !tbaa !12
  %.phi.trans.insert21 = getelementptr inbounds nuw i8, ptr %.phi.trans.insert14, i64 7
  %.pre22 = load i8, ptr %.phi.trans.insert21, align 1, !tbaa !12
  %.pre23 = zext i8 %.pre16 to i16
  %.pre25 = shl nuw i16 %.pre23, 8
  %.pre27 = zext i8 %.pre18 to i16
  %.pre29 = or disjoint i16 %.pre25, %.pre27
  %.pre31 = zext i8 %.pre20 to i16
  %.pre33 = shl nuw i16 %.pre31, 8
  %.pre35 = zext i8 %.pre22 to i16
  %.pre37 = or disjoint i16 %.pre33, %.pre35
  br label %57

57:                                               ; preds = %39, %11
  %.pre-phi38 = phi i16 [ %.pre37, %39 ], [ %34, %11 ]
  %.pre-phi30 = phi i16 [ %.pre29, %39 ], [ %25, %11 ]
  %.pre-phi = phi i64 [ %.phi.trans.insert13, %39 ], [ %16, %11 ]
  %58 = phi ptr [ %42, %39 ], [ %13, %11 ]
  %59 = phi float [ %56, %39 ], [ %38, %11 ]
  %60 = getelementptr inbounds i8, ptr %58, i64 %.pre-phi
  %61 = getelementptr inbounds nuw i8, ptr %60, i64 8
  %62 = load i8, ptr %61, align 1, !tbaa !12
  %63 = zext i8 %62 to i16
  %64 = shl nuw i16 %63, 8
  %65 = getelementptr inbounds nuw i8, ptr %60, i64 9
  %66 = load i8, ptr %65, align 1, !tbaa !12
  %67 = zext i8 %66 to i16
  %68 = or disjoint i16 %64, %67
  %69 = sitofp i16 %.pre-phi30 to float
  %70 = fmul float %59, %69
  store float %70, ptr %3, align 4, !tbaa !71
  %71 = sitofp i16 %.pre-phi38 to float
  %72 = fmul float %59, %71
  store float %72, ptr %4, align 4, !tbaa !71
  %73 = sitofp i16 %68 to float
  %74 = fmul float %59, %73
  store float %74, ptr %5, align 4, !tbaa !71
  call void @llvm.lifetime.end.p0(i64 160, ptr nonnull %7) #32
  ret void
}